; Function Attrs: nounwind uwtable
define ptr @l_Std_Time_Month_Ordinal_clipDay(i8 noundef zeroext %0, ptr noundef %1, ptr noundef %2) local_unnamed_addr #0 {
  %4 = tail call ptr @l_Std_Time_Month_Ordinal_days(i8 noundef zeroext %0, ptr noundef %1)
  %5 = ptrtoint ptr %4 to i64
  %6 = and i64 %5, 1
  %.not.i.i = icmp eq i64 %6, 0
  br i1 %.not.i.i, label %lean_int_dec_lt.exit, label %7, !prof !13

7:                                                ; preds = %3
  %8 = ptrtoint ptr %2 to i64
  %9 = and i64 %8, 1
  %.not7.i.i = icmp eq i64 %9, 0
  br i1 %.not7.i.i, label %lean_int_dec_lt.exit.thread13, label %lean_int_dec_lt.exit.thread, !prof !13

lean_int_dec_lt.exit:                             ; preds = %3
  %10 = tail call zeroext i1 @lean_int_big_lt(ptr noundef %4, ptr noundef %2) #5
  br i1 %10, label %lean_inc.exit, label %16

lean_int_dec_lt.exit.thread13:                    ; preds = %7
  %11 = tail call zeroext i1 @lean_int_big_lt(ptr noundef %4, ptr noundef %2) #5
  br i1 %11, label %lean_inc.exit, label %lean_dec.exit

lean_int_dec_lt.exit.thread:                      ; preds = %7
  %12 = lshr i64 %5, 1
  %13 = trunc i64 %12 to i32
  %14 = lshr i64 %8, 1
  %15 = trunc i64 %14 to i32
  %.not = icmp slt i32 %13, %15
  br i1 %.not, label %lean_inc.exit, label %lean_dec.exit

16:                                               ; preds = %lean_int_dec_lt.exit
  %17 = load i32, ptr %4, align 4, !tbaa !5
  %18 = icmp sgt i32 %17, 1
  br i1 %18, label %19, label %21, !prof !10

19:                                               ; preds = %16
  %20 = add nsw i32 %17, -1
  store i32 %20, ptr %4, align 4, !tbaa !5
  br label %lean_dec.exit

21:                                               ; preds = %16
  %.not.i = icmp eq i32 %17, 0
  br i1 %.not.i, label %lean_dec.exit, label %22

22:                                               ; preds = %21
  tail call void @lean_dec_ref_cold(ptr noundef nonnull %4) #5
  br label %lean_dec.exit

lean_dec.exit:                                    ; preds = %lean_int_dec_lt.exit.thread13, %lean_int_dec_lt.exit.thread, %22, %21, %19
  %23 = ptrtoint ptr %2 to i64
  %24 = and i64 %23, 1
  %.not12 = icmp eq i64 %24, 0
  br i1 %.not12, label %25, label %lean_inc.exit

25:                                               ; preds = %lean_dec.exit
  %.val.i = load i32, ptr %2, align 4, !tbaa !5
  %26 = icmp sgt i32 %.val.i, 0
  br i1 %26, label %27, label %29, !prof !10

27:                                               ; preds = %25
  %28 = add nuw i32 %.val.i, 1
  store i32 %28, ptr %2, align 4, !tbaa !5
  br label %lean_inc.exit

29:                                               ; preds = %25
  %.not.i9 = icmp eq i32 %.val.i, 0
  br i1 %.not.i9, label %lean_inc.exit, label %30

30:                                               ; preds = %29
  tail call void @lean_inc_ref_cold(ptr noundef nonnull %2) #5
  br label %lean_inc.exit

lean_inc.exit:                                    ; preds = %lean_int_dec_lt.exit.thread13, %lean_dec.exit, %27, %29, %30, %lean_int_dec_lt.exit.thread, %lean_int_dec_lt.exit
  %.0 = phi ptr [ %4, %lean_int_dec_lt.exit ], [ %4, %lean_int_dec_lt.exit.thread ], [ %2, %30 ], [ %2, %29 ], [ %2, %27 ], [ %2, %lean_dec.exit ], [ %4, %lean_int_dec_lt.exit.thread13 ]
  ret ptr %.0
}